; Function Attrs: mustprogress nounwind uwtable
define void @_ZN5osgeo4proj2cs16CoordinateSystemD2Ev(ptr noundef nonnull align 8 dereferenceable(56) initializes((0, 8), (16, 32), (40, 48)) %0) unnamed_addr #3 align 2 personality ptr @__gxx_personality_v0 {
  store ptr getelementptr inbounds nuw inrange(-16, 56) (i8, ptr @_ZTVN5osgeo4proj2cs16CoordinateSystemE, i64 16), ptr %0, align 8, !tbaa !3
  %2 = getelementptr inbounds nuw i8, ptr %0, i64 16
  store ptr getelementptr inbounds nuw inrange(-16, 24) (i8, ptr @_ZTVN5osgeo4proj2cs16CoordinateSystemE, i64 88), ptr %2, align 8, !tbaa !3
  %3 = getelementptr inbounds nuw i8, ptr %0, i64 24
  store ptr getelementptr inbounds nuw inrange(-16, 24) (i8, ptr @_ZTVN5osgeo4proj2cs16CoordinateSystemE, i64 128), ptr %3, align 8, !tbaa !3
  %4 = getelementptr inbounds nuw i8, ptr %0, i64 40
  store ptr getelementptr inbounds nuw inrange(-16, 24) (i8, ptr @_ZTVN5osgeo4proj2cs16CoordinateSystemE, i64 168), ptr %4, align 8, !tbaa !3
  %5 = getelementptr inbounds nuw i8, ptr %0, i64 48
  %6 = load ptr, ptr %5, align 8, !tbaa !134
  %.not.i = icmp eq ptr %6, null
  br i1 %.not.i, label %_ZNSt10unique_ptrIN5osgeo4proj2cs16CoordinateSystem7PrivateESt14default_deleteIS4_EED2Ev.exit, label %7

7:                                                ; preds = %1
  tail call void @_ZNKSt14default_deleteIN5osgeo4proj2cs16CoordinateSystem7PrivateEEclEPS4_(ptr noundef nonnull align 8 dereferenceable(8) %5, ptr noundef nonnull %6)
  br label %_ZNSt10unique_ptrIN5osgeo4proj2cs16CoordinateSystem7PrivateESt14default_deleteIS4_EED2Ev.exit

_ZNSt10unique_ptrIN5osgeo4proj2cs16CoordinateSystem7PrivateESt14default_deleteIS4_EED2Ev.exit: ; preds = %1, %7
  store ptr null, ptr %5, align 8, !tbaa !134
  tail call void @_ZN5osgeo4proj2io15IJSONExportableD2Ev(ptr noundef nonnull align 8 dereferenceable(8) %4) #33
  tail call void @_ZN5osgeo4proj6common16IdentifiedObjectD2Ev(ptr noundef nonnull align 8 dereferenceable(40) %0) #33
  ret void
}